target datalayout = "e-m:e-p270:32:32-p271:32:32-p272:64:64-i64:64-i128:128-f80:128-n8:16:32:64-S128"
target triple = "x86_64-pc-linux-gnu"

%struct.expert_field = type { i32, i32 }
%struct._packet_info = type { ptr, ptr, i32, i32, %struct.nstime_t, %struct.nstime_t, %struct.nstime_t, i8, ptr, ptr, ptr, ptr, %struct._address, %struct._address, %struct._address, %struct._address, %struct._address, %struct._address, i32, ptr, i8, [3 x i8], %struct.anon, i32, i32, i32, i32, ptr, i8, ptr, ptr, i16, i16, i32, i32, i16, i32, i32, ptr, ptr, ptr, i8, i8, i16, i16, i16, i32, i16, i16, ptr, ptr, ptr, ptr, ptr, i32, i32 }
%struct.nstime_t = type { i64, i32 }
%struct._address = type { i32, i32, ptr, ptr }
%struct.anon = type { i8, [3 x i8] }

@hf_uftp_destlist = internal global i32 0, align 4
@hf_uftp_dest = internal global i32 0, align 4
@hf_uftp_fileinfo = internal global i32 0, align 4
@hf_uftp_fileinfo_func = internal global i32 0, align 4
@hf_uftp_fileinfo_ftype = internal global i32 0, align 4
@hf_uftp_fileinfo_file_id = internal global i32 0, align 4
@hf_uftp_fileinfo_block_total = internal global i32 0, align 4
@hf_uftp_fileinfo_section_total = internal global i32 0, align 4
@hf_uftp_fileinfo_destcount = internal global i32 0, align 4
@hf_uftp_fileinfo_fsize = internal global i32 0, align 4
@hf_uftp_fileinfo_name = internal global i32 0, align 4
@ett_uftp_fileinfo = internal global i32 0, align 4
@ett_uftp_destlist = internal global i32 0, align 4
@ei_uftp_length_invalid = internal global %struct.expert_field zeroinitializer, align 4
@.str.289 = private unnamed_addr constant [19 x i8] c"Invalid length: %d\00", align 1
@.str.292 = private unnamed_addr constant [35 x i8] c"Invalid length, len = %d, count=%d\00", align 1
@.str.293 = private unnamed_addr constant [6 x i8] c":%04X\00", align 1

; Function Attrs: null_pointer_is_valid sspstrong uwtable
define internal void @dissect_uftp_fileinfo_30(ptr noundef %0, ptr noundef %1, ptr noundef %2) #0 {
  %4 = alloca ptr, align 8
  %5 = alloca ptr, align 8
  %6 = alloca ptr, align 8
  %7 = alloca ptr, align 8
  %8 = alloca ptr, align 8
  %9 = alloca ptr, align 8
  %10 = alloca ptr, align 8
  %11 = alloca i32, align 4
  %12 = alloca i16, align 2
  %13 = alloca i16, align 2
  %14 = alloca i16, align 2
  %15 = alloca i32, align 4
  store ptr %0, ptr %4, align 8
  store ptr %1, ptr %5, align 8
  store ptr %2, ptr %6, align 8
  call void @llvm.lifetime.start.p0(i64 8, ptr %7) #3
  store ptr null, ptr %7, align 8
  call void @llvm.lifetime.start.p0(i64 8, ptr %8) #3
  store ptr null, ptr %8, align 8
  call void @llvm.lifetime.start.p0(i64 8, ptr %9) #3
  store ptr null, ptr %9, align 8
  call void @llvm.lifetime.start.p0(i64 8, ptr %10) #3
  store ptr null, ptr %10, align 8
  call void @llvm.lifetime.start.p0(i64 4, ptr %11) #3
  store i32 0, ptr %11, align 4
  call void @llvm.lifetime.start.p0(i64 2, ptr %12) #3
  call void @llvm.lifetime.start.p0(i64 2, ptr %13) #3
  call void @llvm.lifetime.start.p0(i64 2, ptr %14) #3
  %16 = load ptr, ptr %4, align 8
  %17 = call i32 @tvb_reported_length(ptr noundef %16)
  %18 = icmp ult i32 %17, 320
  br i1 %18, label %19, label %27

19:                                               ; preds = %3
  %20 = load ptr, ptr %6, align 8
  %21 = load ptr, ptr %5, align 8
  %22 = load ptr, ptr %4, align 8
  %23 = load i32, ptr %11, align 4
  %24 = load ptr, ptr %4, align 8
  %25 = call i32 @tvb_reported_length(ptr noundef %24)
  %26 = call ptr (ptr, ptr, ptr, ptr, i32, i32, ptr, ...) @proto_tree_add_expert_format(ptr noundef %20, ptr noundef %21, ptr noundef @ei_uftp_length_invalid, ptr noundef %22, i32 noundef %23, i32 noundef -1, ptr noundef @.str.289, i32 noundef %25)
  store i32 1, ptr %15, align 4
  br label %153

27:                                               ; preds = %3
  %28 = load ptr, ptr %4, align 8
  %29 = call zeroext i16 @tvb_get_ntohs(ptr noundef %28, i32 noundef 10)
  store i16 %29, ptr %13, align 2
  %30 = load ptr, ptr %4, align 8
  %31 = call i32 @tvb_reported_length(ptr noundef %30)
  %32 = load i16, ptr %13, align 2
  %33 = zext i16 %32 to i32
  %34 = mul i32 %33, 4
  %35 = add i32 320, %34
  %36 = icmp slt i32 %31, %35
  br i1 %36, label %37, label %47

37:                                               ; preds = %27
  %38 = load ptr, ptr %6, align 8
  %39 = load ptr, ptr %5, align 8
  %40 = load ptr, ptr %4, align 8
  %41 = load i32, ptr %11, align 4
  %42 = load ptr, ptr %4, align 8
  %43 = call i32 @tvb_reported_length(ptr noundef %42)
  %44 = load i16, ptr %13, align 2
  %45 = zext i16 %44 to i32
  %46 = call ptr (ptr, ptr, ptr, ptr, i32, i32, ptr, ...) @proto_tree_add_expert_format(ptr noundef %38, ptr noundef %39, ptr noundef @ei_uftp_length_invalid, ptr noundef %40, i32 noundef %41, i32 noundef -1, ptr noundef @.str.292, i32 noundef %43, i32 noundef %45)
  store i32 1, ptr %15, align 4
  br label %153

47:                                               ; preds = %27
  %48 = load ptr, ptr %4, align 8
  %49 = call zeroext i16 @tvb_get_ntohs(ptr noundef %48, i32 noundef 2)
  store i16 %49, ptr %12, align 2
  %50 = load ptr, ptr %5, align 8
  %51 = getelementptr inbounds nuw %struct._packet_info, ptr %50, i32 0, i32 1
  %52 = load ptr, ptr %51, align 8
  %53 = load i16, ptr %12, align 2
  %54 = zext i16 %53 to i32
  call void (ptr, i32, ptr, ...) @col_append_fstr(ptr noundef %52, i32 noundef 25, ptr noundef @.str.293, i32 noundef %54)
  %55 = load ptr, ptr %6, align 8
  %56 = load i32, ptr @hf_uftp_fileinfo, align 4
  %57 = load ptr, ptr %4, align 8
  %58 = load i32, ptr %11, align 4
  %59 = call ptr @proto_tree_add_item(ptr noundef %55, i32 noundef %56, ptr noundef %57, i32 noundef %58, i32 noundef -1, i32 noundef 0)
  store ptr %59, ptr %7, align 8
  %60 = load ptr, ptr %7, align 8
  %61 = load i32, ptr @ett_uftp_fileinfo, align 4
  %62 = call ptr @proto_item_add_subtree(ptr noundef %60, i32 noundef %61)
  store ptr %62, ptr %9, align 8
  %63 = load ptr, ptr %9, align 8
  %64 = load i32, ptr @hf_uftp_fileinfo_func, align 4
  %65 = load ptr, ptr %4, align 8
  %66 = load i32, ptr %11, align 4
  %67 = call ptr @proto_tree_add_item(ptr noundef %63, i32 noundef %64, ptr noundef %65, i32 noundef %66, i32 noundef 1, i32 noundef 0)
  %68 = load i32, ptr %11, align 4
  %69 = add i32 %68, 1
  store i32 %69, ptr %11, align 4
  %70 = load ptr, ptr %9, align 8
  %71 = load i32, ptr @hf_uftp_fileinfo_ftype, align 4
  %72 = load ptr, ptr %4, align 8
  %73 = load i32, ptr %11, align 4
  %74 = call ptr @proto_tree_add_item(ptr noundef %70, i32 noundef %71, ptr noundef %72, i32 noundef %73, i32 noundef 1, i32 noundef 0)
  %75 = load i32, ptr %11, align 4
  %76 = add i32 %75, 1
  store i32 %76, ptr %11, align 4
  %77 = load ptr, ptr %9, align 8
  %78 = load i32, ptr @hf_uftp_fileinfo_file_id, align 4
  %79 = load ptr, ptr %4, align 8
  %80 = load i32, ptr %11, align 4
  %81 = call ptr @proto_tree_add_item(ptr noundef %77, i32 noundef %78, ptr noundef %79, i32 noundef %80, i32 noundef 2, i32 noundef 0)
  %82 = load i32, ptr %11, align 4
  %83 = add i32 %82, 2
  store i32 %83, ptr %11, align 4
  %84 = load ptr, ptr %9, align 8
  %85 = load i32, ptr @hf_uftp_fileinfo_block_total, align 4
  %86 = load ptr, ptr %4, align 8
  %87 = load i32, ptr %11, align 4
  %88 = call ptr @proto_tree_add_item(ptr noundef %84, i32 noundef %85, ptr noundef %86, i32 noundef %87, i32 noundef 4, i32 noundef 0)
  %89 = load i32, ptr %11, align 4
  %90 = add i32 %89, 4
  store i32 %90, ptr %11, align 4
  %91 = load ptr, ptr %9, align 8
  %92 = load i32, ptr @hf_uftp_fileinfo_section_total, align 4
  %93 = load ptr, ptr %4, align 8
  %94 = load i32, ptr %11, align 4
  %95 = call ptr @proto_tree_add_item(ptr noundef %91, i32 noundef %92, ptr noundef %93, i32 noundef %94, i32 noundef 2, i32 noundef 0)
  %96 = load i32, ptr %11, align 4
  %97 = add i32 %96, 2
  store i32 %97, ptr %11, align 4
  %98 = load ptr, ptr %9, align 8
  %99 = load i32, ptr @hf_uftp_fileinfo_destcount, align 4
  %100 = load ptr, ptr %4, align 8
  %101 = load i32, ptr %11, align 4
  %102 = call ptr @proto_tree_add_item(ptr noundef %98, i32 noundef %99, ptr noundef %100, i32 noundef %101, i32 noundef 2, i32 noundef 0)
  %103 = load i32, ptr %11, align 4
  %104 = add i32 %103, 2
  store i32 %104, ptr %11, align 4
  %105 = load ptr, ptr %9, align 8
  %106 = load i32, ptr @hf_uftp_fileinfo_fsize, align 4
  %107 = load ptr, ptr %4, align 8
  %108 = load i32, ptr %11, align 4
  %109 = call ptr @proto_tree_add_item(ptr noundef %105, i32 noundef %106, ptr noundef %107, i32 noundef %108, i32 noundef 8, i32 noundef 0)
  %110 = load i32, ptr %11, align 4
  %111 = add i32 %110, 8
  store i32 %111, ptr %11, align 4
  %112 = load ptr, ptr %9, align 8
  %113 = load i32, ptr @hf_uftp_fileinfo_name, align 4
  %114 = load ptr, ptr %4, align 8
  %115 = load i32, ptr %11, align 4
  %116 = call ptr @proto_tree_add_item(ptr noundef %112, i32 noundef %113, ptr noundef %114, i32 noundef %115, i32 noundef 300, i32 noundef 0)
  %117 = load i32, ptr %11, align 4
  %118 = add i32 %117, 300
  store i32 %118, ptr %11, align 4
  %119 = load i16, ptr %13, align 2
  %120 = zext i16 %119 to i32
  %121 = icmp sgt i32 %120, 0
  br i1 %121, label %122, label %134

122:                                              ; preds = %47
  %123 = load ptr, ptr %9, align 8
  %124 = load i32, ptr @hf_uftp_destlist, align 4
  %125 = load ptr, ptr %4, align 8
  %126 = load i32, ptr %11, align 4
  %127 = load i16, ptr %13, align 2
  %128 = zext i16 %127 to i32
  %129 = mul i32 %128, 4
  %130 = call ptr @proto_tree_add_item(ptr noundef %123, i32 noundef %124, ptr noundef %125, i32 noundef %126, i32 noundef %129, i32 noundef 0)
  store ptr %130, ptr %8, align 8
  %131 = load ptr, ptr %8, align 8
  %132 = load i32, ptr @ett_uftp_destlist, align 4
  %133 = call ptr @proto_item_add_subtree(ptr noundef %131, i32 noundef %132)
  store ptr %133, ptr %10, align 8
  br label %134

134:                                              ; preds = %122, %47
  store i16 0, ptr %14, align 2
  br label %135

135:                                              ; preds = %149, %134
  %136 = load i16, ptr %14, align 2
  %137 = zext i16 %136 to i32
  %138 = load i16, ptr %13, align 2
  %139 = zext i16 %138 to i32
  %140 = icmp slt i32 %137, %139
  br i1 %140, label %141, label %152

141:                                              ; preds = %135
  %142 = load ptr, ptr %10, align 8
  %143 = load i32, ptr @hf_uftp_dest, align 4
  %144 = load ptr, ptr %4, align 8
  %145 = load i32, ptr %11, align 4
  %146 = call ptr @proto_tree_add_item(ptr noundef %142, i32 noundef %143, ptr noundef %144, i32 noundef %145, i32 noundef 4, i32 noundef 0)
  %147 = load i32, ptr %11, align 4
  %148 = add i32 %147, 4
  store i32 %148, ptr %11, align 4
  br label %149

149:                                              ; preds = %141
  %150 = load i16, ptr %14, align 2
  %151 = add i16 %150, 1
  store i16 %151, ptr %14, align 2
  br label %135, !llvm.loop !10

152:                                              ; preds = %135
  store i32 0, ptr %15, align 4
  br label %153

153:                                              ; preds = %152, %37, %19
  call void @llvm.lifetime.end.p0(i64 2, ptr %14) #3
  call void @llvm.lifetime.end.p0(i64 2, ptr %13) #3
  call void @llvm.lifetime.end.p0(i64 2, ptr %12) #3
  call void @llvm.lifetime.end.p0(i64 4, ptr %11) #3
  call void @llvm.lifetime.end.p0(i64 8, ptr %10) #3
  call void @llvm.lifetime.end.p0(i64 8, ptr %9) #3
  call void @llvm.lifetime.end.p0(i64 8, ptr %8) #3
  call void @llvm.lifetime.end.p0(i64 8, ptr %7) #3
  %154 = load i32, ptr %15, align 4
  switch i32 %154, label %156 [
    i32 0, label %155
    i32 1, label %155
  ]

155:                                              ; preds = %153, %153
  ret void

156:                                              ; preds = %153
  unreachable
}