; Function Attrs: null_pointer_is_valid sspstrong uwtable
define internal fastcc void @dissect_uftp_fileinfo_30(ptr noundef %0, ptr noundef %1, ptr noundef %2) unnamed_addr #0 {
  %4 = tail call i32 @tvb_reported_length(ptr noundef %0)
  %5 = icmp ult i32 %4, 320
  br i1 %5, label %6, label %9

6:                                                ; preds = %3
  %7 = tail call i32 @tvb_reported_length(ptr noundef %0)
  %8 = tail call ptr (ptr, ptr, ptr, ptr, i32, i32, ptr, ...) @proto_tree_add_expert_format(ptr noundef %2, ptr noundef %1, ptr noundef nonnull @ei_uftp_length_invalid, ptr noundef %0, i32 noundef 0, i32 noundef -1, ptr noundef nonnull @.str.289, i32 noundef %7)
  br label %.loopexit

9:                                                ; preds = %3
  %10 = tail call zeroext i16 @tvb_get_ntohs(ptr noundef %0, i32 noundef 10)
  %11 = tail call i32 @tvb_reported_length(ptr noundef %0)
  %12 = zext i16 %10 to i32
  %13 = shl nuw nsw i32 %12, 2
  %14 = add nuw nsw i32 %13, 320
  %15 = icmp slt i32 %11, %14
  br i1 %15, label %16, label %19

16:                                               ; preds = %9
  %17 = tail call i32 @tvb_reported_length(ptr noundef %0)
  %18 = tail call ptr (ptr, ptr, ptr, ptr, i32, i32, ptr, ...) @proto_tree_add_expert_format(ptr noundef %2, ptr noundef %1, ptr noundef nonnull @ei_uftp_length_invalid, ptr noundef %0, i32 noundef 0, i32 noundef -1, ptr noundef nonnull @.str.292, i32 noundef %17, i32 noundef %12)
  br label %.loopexit

19:                                               ; preds = %9
  %20 = tail call zeroext i16 @tvb_get_ntohs(ptr noundef %0, i32 noundef 2)
  %21 = getelementptr inbounds nuw i8, ptr %1, i64 8
  %22 = load ptr, ptr %21, align 8
  %23 = zext i16 %20 to i32
  tail call void (ptr, i32, ptr, ...) @col_append_fstr(ptr noundef %22, i32 noundef 25, ptr noundef nonnull @.str.293, i32 noundef %23)
  %24 = load i32, ptr @hf_uftp_fileinfo, align 4
  %25 = tail call ptr @proto_tree_add_item(ptr noundef %2, i32 noundef %24, ptr noundef %0, i32 noundef 0, i32 noundef -1, i32 noundef 0)
  %26 = load i32, ptr @ett_uftp_fileinfo, align 4
  %27 = tail call ptr @proto_item_add_subtree(ptr noundef %25, i32 noundef %26)
  %28 = load i32, ptr @hf_uftp_fileinfo_func, align 4
  %29 = tail call ptr @proto_tree_add_item(ptr noundef %27, i32 noundef %28, ptr noundef %0, i32 noundef 0, i32 noundef 1, i32 noundef 0)
  %30 = load i32, ptr @hf_uftp_fileinfo_ftype, align 4
  %31 = tail call ptr @proto_tree_add_item(ptr noundef %27, i32 noundef %30, ptr noundef %0, i32 noundef 1, i32 noundef 1, i32 noundef 0)
  %32 = load i32, ptr @hf_uftp_fileinfo_file_id, align 4
  %33 = tail call ptr @proto_tree_add_item(ptr noundef %27, i32 noundef %32, ptr noundef %0, i32 noundef 2, i32 noundef 2, i32 noundef 0)
  %34 = load i32, ptr @hf_uftp_fileinfo_block_total, align 4
  %35 = tail call ptr @proto_tree_add_item(ptr noundef %27, i32 noundef %34, ptr noundef %0, i32 noundef 4, i32 noundef 4, i32 noundef 0)
  %36 = load i32, ptr @hf_uftp_fileinfo_section_total, align 4
  %37 = tail call ptr @proto_tree_add_item(ptr noundef %27, i32 noundef %36, ptr noundef %0, i32 noundef 8, i32 noundef 2, i32 noundef 0)
  %38 = load i32, ptr @hf_uftp_fileinfo_destcount, align 4
  %39 = tail call ptr @proto_tree_add_item(ptr noundef %27, i32 noundef %38, ptr noundef %0, i32 noundef 10, i32 noundef 2, i32 noundef 0)
  %40 = load i32, ptr @hf_uftp_fileinfo_fsize, align 4
  %41 = tail call ptr @proto_tree_add_item(ptr noundef %27, i32 noundef %40, ptr noundef %0, i32 noundef 12, i32 noundef 8, i32 noundef 0)
  %42 = load i32, ptr @hf_uftp_fileinfo_name, align 4
  %43 = tail call ptr @proto_tree_add_item(ptr noundef %27, i32 noundef %42, ptr noundef %0, i32 noundef 20, i32 noundef 300, i32 noundef 0)
  %.not = icmp eq i16 %10, 0
  br i1 %.not, label %.loopexit, label %.lr.ph.preheader

.lr.ph.preheader:                                 ; preds = %19
  %44 = load i32, ptr @hf_uftp_destlist, align 4
  %45 = tail call ptr @proto_tree_add_item(ptr noundef %27, i32 noundef %44, ptr noundef %0, i32 noundef 320, i32 noundef %13, i32 noundef 0)
  %46 = load i32, ptr @ett_uftp_destlist, align 4
  %47 = tail call ptr @proto_item_add_subtree(ptr noundef %45, i32 noundef %46)
  br label %.lr.ph

.lr.ph:                                           ; preds = %.lr.ph.preheader, %.lr.ph
  %.069 = phi i16 [ %51, %.lr.ph ], [ 0, %.lr.ph.preheader ]
  %.06668 = phi i32 [ %50, %.lr.ph ], [ 320, %.lr.ph.preheader ]
  %48 = load i32, ptr @hf_uftp_dest, align 4
  %49 = tail call ptr @proto_tree_add_item(ptr noundef %47, i32 noundef %48, ptr noundef %0, i32 noundef %.06668, i32 noundef 4, i32 noundef 0)
  %50 = add nuw nsw i32 %.06668, 4
  %51 = add nuw i16 %.069, 1
  %exitcond.not = icmp eq i16 %51, %10
  br i1 %exitcond.not, label %.loopexit, label %.lr.ph, !llvm.loop !10

.loopexit:                                        ; preds = %.lr.ph, %19, %16, %6
  ret void
}